target datalayout = "e-m:e-p270:32:32-p271:32:32-p272:64:64-i64:64-i128:128-f80:128-n8:16:32:64-S128"
target triple = "x86_64-pc-linux-gnu"

%struct.quicklist = type { ptr, ptr, i64, i64, i64, [0 x %struct.quicklistBookmark] }
%struct.quicklistBookmark = type { ptr, ptr }

; Function Attrs: nounwind uwtable
define dso_local void @quicklistSetCompressDepth(ptr noundef %0, i32 noundef %1) #0 {
  %3 = alloca ptr, align 8
  %4 = alloca i32, align 4
  store ptr %0, ptr %3, align 8, !tbaa !9
  store i32 %1, ptr %4, align 4, !tbaa !14
  %5 = load i32, ptr %4, align 4, !tbaa !14
  %6 = icmp sgt i32 %5, 65535
  br i1 %6, label %7, label %8

7:                                                ; preds = %2
  store i32 65535, ptr %4, align 4, !tbaa !14
  br label %13

8:                                                ; preds = %2
  %9 = load i32, ptr %4, align 4, !tbaa !14
  %10 = icmp slt i32 %9, 0
  br i1 %10, label %11, label %12

11:                                               ; preds = %8
  store i32 0, ptr %4, align 4, !tbaa !14
  br label %12

12:                                               ; preds = %11, %8
  br label %13

13:                                               ; preds = %12, %7
  %14 = load i32, ptr %4, align 4, !tbaa !14
  %15 = load ptr, ptr %3, align 8, !tbaa !9
  %16 = getelementptr inbounds nuw %struct.quicklist, ptr %15, i32 0, i32 4
  %17 = zext i32 %14 to i64
  %18 = load i64, ptr %16, align 8
  %19 = and i64 %17, 65535
  %20 = shl i64 %19, 16
  %21 = and i64 %18, -4294901761
  %22 = or i64 %21, %20
  store i64 %22, ptr %16, align 8
  ret void
}