; Function Attrs: mustprogress nofree norecurse nosync nounwind willreturn memory(argmem: readwrite) uwtable
define dso_local void @quicklistSetCompressDepth(ptr noundef captures(none) %0, i32 noundef %1) local_unnamed_addr #4 {
  %3 = icmp sgt i32 %1, 65535
  %spec.store.select = tail call i32 @llvm.smax.i32(i32 %1, i32 0)
  %4 = shl i32 %spec.store.select, 16
  %narrow = select i1 %3, i32 -65536, i32 %4
  %.0 = zext i32 %narrow to i64
  %5 = getelementptr inbounds nuw i8, ptr %0, i64 32
  %6 = load i64, ptr %5, align 8
  %7 = and i64 %6, -4294901761
  %8 = or disjoint i64 %7, %.0
  store i64 %8, ptr %5, align 8
  ret void
}